target datalayout = "e-m:e-p270:32:32-p271:32:32-p272:64:64-i64:64-i128:128-f80:128-n8:16:32:64-S128"
target triple = "x86_64-pc-linux-gnu"

%struct.mbedtls_ssl_context = type { ptr, i32, i32, i32, i32, i32, ptr, ptr, ptr, ptr, ptr, ptr, ptr, ptr, ptr, ptr, ptr, ptr, ptr, ptr, ptr, ptr, ptr, ptr, ptr, ptr, ptr, ptr, ptr, ptr, ptr, ptr, ptr, i32, i64, i64, i16, i64, i64, i64, i64, i32, i32, i8, i8, i32, i8, ptr, ptr, ptr, ptr, ptr, ptr, ptr, i32, i64, i64, [8 x i8], i16, ptr, ptr, ptr, i64, i32, i64, [12 x i8], [12 x i8], [32 x i8], i8, i8, ptr, ptr, %union.mbedtls_ssl_user_data_t }
%union.mbedtls_ssl_user_data_t = type { i64 }
%struct.mbedtls_ssl_handshake_params = type { i8, i8, i8, i8, i8, i32, i8, i8, i8, i8, ptr, ptr, ptr, ptr, ptr, i8, i8, i8, i8, i16, i16, [20 x i16], ptr, ptr, %struct.mbedtls_dhm_context, %struct.mbedtls_ecdh_context, i16, i64, i32, i8, [1024 x i8], i64, ptr, ptr, i64, i16, ptr, ptr, ptr, ptr, %struct.anon, ptr, i16, i8, i32, i32, i32, ptr, ptr, ptr, i32, ptr, [8 x i8], i8, [32 x i8], i8, i16, %struct.mbedtls_md_context_t, %struct.mbedtls_md_context_t, i16, i8, %union.anon.1, [64 x i8], [1076 x i8], i64, i32, i32, i8, ptr, ptr, %union.anon.4, %struct.mbedtls_ssl_tls13_handshake_secrets, ptr, i64, ptr }
%struct.mbedtls_dhm_context = type { %struct.mbedtls_mpi, %struct.mbedtls_mpi, %struct.mbedtls_mpi, %struct.mbedtls_mpi, %struct.mbedtls_mpi, %struct.mbedtls_mpi, %struct.mbedtls_mpi, %struct.mbedtls_mpi, %struct.mbedtls_mpi, %struct.mbedtls_mpi }
%struct.mbedtls_mpi = type { ptr, i16, i16 }
%struct.mbedtls_ecdh_context = type { i8, i32, i32, %union.anon }
%union.anon = type { %struct.mbedtls_ecdh_context_mbed }
%struct.mbedtls_ecdh_context_mbed = type { %struct.mbedtls_ecp_group, %struct.mbedtls_mpi, %struct.mbedtls_ecp_point, %struct.mbedtls_ecp_point, %struct.mbedtls_mpi }
%struct.mbedtls_ecp_group = type { i32, %struct.mbedtls_mpi, %struct.mbedtls_mpi, %struct.mbedtls_mpi, %struct.mbedtls_ecp_point, %struct.mbedtls_mpi, i64, i64, i32, ptr, ptr, ptr, ptr, ptr, i64 }
%struct.mbedtls_ecp_point = type { %struct.mbedtls_mpi, %struct.mbedtls_mpi, %struct.mbedtls_mpi }
%struct.anon = type { i64, i8, [4 x %struct.mbedtls_ssl_hs_buffer], %struct.anon.0 }
%struct.mbedtls_ssl_hs_buffer = type { i8, ptr, i64 }
%struct.anon.0 = type { ptr, i64, i32 }
%struct.mbedtls_md_context_t = type { ptr, ptr, ptr }
%union.anon.1 = type { %struct.anon.2 }
%struct.anon.2 = type { i8, [64 x i8], i64 }
%union.anon.4 = type { [64 x i8] }
%struct.mbedtls_ssl_tls13_handshake_secrets = type { [64 x i8], [64 x i8] }

@.str = private unnamed_addr constant [130 x i8] c"generated/home/dtcxzyw/WorkSpace/Projects/compilers/llvm-opt-benchmark/bench/lief/bench_build/mbed_src/library/ssl_tls13_server.c\00", align 1
@.str.100 = private unnamed_addr constant [41 x i8] c"server hello, adding key share extension\00", align 1
@.str.101 = private unnamed_addr constant [46 x i8] c"server hello, write selected_group: %s (%04x)\00", align 1
@.str.102 = private unnamed_addr constant [55 x i8] c"mbedtls_ssl_tls13_generate_and_write_xxdh_key_exchange\00", align 1

; Function Attrs: inlinehint nounwind uwtable
define internal i32 @mbedtls_ssl_tls13_named_group_is_ffdh(i16 noundef zeroext %0) #3 {
  %2 = alloca i16, align 2
  store i16 %0, ptr %2, align 2, !tbaa !82
  %3 = load i16, ptr %2, align 2, !tbaa !82
  %4 = zext i16 %3 to i32
  %5 = icmp sge i32 %4, 256
  br i1 %5, label %6, label %10

6:                                                ; preds = %1
  %7 = load i16, ptr %2, align 2, !tbaa !82
  %8 = zext i16 %7 to i32
  %9 = icmp sle i32 %8, 260
  br label %10

10:                                               ; preds = %6, %1
  %11 = phi i1 [ false, %1 ], [ %9, %6 ]
  %12 = zext i1 %11 to i32
  ret i32 %12
}

; Function Attrs: inlinehint nounwind uwtable
define internal i32 @mbedtls_ssl_tls13_named_group_is_ecdhe(i16 noundef zeroext %0) #3 {
  %2 = alloca i16, align 2
  store i16 %0, ptr %2, align 2, !tbaa !82
  %3 = load i16, ptr %2, align 2, !tbaa !82
  %4 = zext i16 %3 to i32
  %5 = icmp eq i32 %4, 29
  br i1 %5, label %22, label %6

6:                                                ; preds = %1
  %7 = load i16, ptr %2, align 2, !tbaa !82
  %8 = zext i16 %7 to i32
  %9 = icmp eq i32 %8, 23
  br i1 %9, label %22, label %10

10:                                               ; preds = %6
  %11 = load i16, ptr %2, align 2, !tbaa !82
  %12 = zext i16 %11 to i32
  %13 = icmp eq i32 %12, 24
  br i1 %13, label %22, label %14

14:                                               ; preds = %10
  %15 = load i16, ptr %2, align 2, !tbaa !82
  %16 = zext i16 %15 to i32
  %17 = icmp eq i32 %16, 25
  br i1 %17, label %22, label %18

18:                                               ; preds = %14
  %19 = load i16, ptr %2, align 2, !tbaa !82
  %20 = zext i16 %19 to i32
  %21 = icmp eq i32 %20, 30
  br label %22

22:                                               ; preds = %18, %14, %10, %6, %1
  %23 = phi i1 [ true, %14 ], [ true, %10 ], [ true, %6 ], [ true, %1 ], [ %21, %18 ]
  %24 = zext i1 %23 to i32
  ret i32 %24
}

; Function Attrs: inlinehint nounwind uwtable
define internal void @mbedtls_ssl_tls13_set_hs_sent_ext_mask(ptr noundef %0, i32 noundef %1) #3 {
  %3 = alloca ptr, align 8
  %4 = alloca i32, align 4
  store ptr %0, ptr %3, align 8, !tbaa !3
  store i32 %1, ptr %4, align 4, !tbaa !8
  %5 = load i32, ptr %4, align 4, !tbaa !8
  %6 = call i32 @mbedtls_ssl_get_extension_mask(i32 noundef %5)
  %7 = load ptr, ptr %3, align 8, !tbaa !3
  %8 = getelementptr inbounds nuw %struct.mbedtls_ssl_context, ptr %7, i32 0, i32 16
  %9 = load ptr, ptr %8, align 8, !tbaa !19
  %10 = getelementptr inbounds nuw %struct.mbedtls_ssl_handshake_params, ptr %9, i32 0, i32 65
  %11 = load i32, ptr %10, align 8, !tbaa !121
  %12 = or i32 %11, %6
  store i32 %12, ptr %10, align 8, !tbaa !121
  ret void
}

; Function Attrs: nounwind uwtable
define internal i32 @ssl_tls13_generate_and_write_key_share(ptr noundef %0, i16 noundef zeroext %1, ptr noundef %2, ptr noundef %3, ptr noundef %4) #0 {
  %6 = alloca i32, align 4
  %7 = alloca ptr, align 8
  %8 = alloca i16, align 2
  %9 = alloca ptr, align 8
  %10 = alloca ptr, align 8
  %11 = alloca ptr, align 8
  %12 = alloca i32, align 4
  %13 = alloca i32, align 4
  store ptr %0, ptr %7, align 8, !tbaa !3
  store i16 %1, ptr %8, align 2, !tbaa !82
  store ptr %2, ptr %9, align 8, !tbaa !41
  store ptr %3, ptr %10, align 8, !tbaa !41
  store ptr %4, ptr %11, align 8, !tbaa !120
  call void @llvm.lifetime.start.p0(i64 4, ptr %12) #10
  store i32 -110, ptr %12, align 4, !tbaa !8
  %14 = load ptr, ptr %11, align 8, !tbaa !120
  store i64 0, ptr %14, align 8, !tbaa !42
  %15 = load i16, ptr %8, align 2, !tbaa !82
  %16 = call i32 @mbedtls_ssl_tls13_named_group_is_ecdhe(i16 noundef zeroext %15)
  %17 = icmp ne i32 %16, 0
  br i1 %17, label %22, label %18

18:                                               ; preds = %5
  %19 = load i16, ptr %8, align 2, !tbaa !82
  %20 = call i32 @mbedtls_ssl_tls13_named_group_is_ffdh(i16 noundef zeroext %19)
  %21 = icmp ne i32 %20, 0
  br i1 %21, label %22, label %36

22:                                               ; preds = %18, %5
  %23 = load ptr, ptr %7, align 8, !tbaa !3
  %24 = load i16, ptr %8, align 2, !tbaa !82
  %25 = load ptr, ptr %9, align 8, !tbaa !41
  %26 = load ptr, ptr %10, align 8, !tbaa !41
  %27 = load ptr, ptr %11, align 8, !tbaa !120
  %28 = call i32 @mbedtls_ssl_tls13_generate_and_write_xxdh_key_exchange(ptr noundef %23, i16 noundef zeroext %24, ptr noundef %25, ptr noundef %26, ptr noundef %27)
  store i32 %28, ptr %12, align 4, !tbaa !8
  %29 = load i32, ptr %12, align 4, !tbaa !8
  %30 = icmp ne i32 %29, 0
  br i1 %30, label %31, label %35

31:                                               ; preds = %22
  %32 = load ptr, ptr %7, align 8, !tbaa !3
  %33 = load i32, ptr %12, align 4, !tbaa !8
  call void @mbedtls_debug_print_ret(ptr noundef %32, i32 noundef 1, ptr noundef @.str, i32 noundef 2100, ptr noundef @.str.102, i32 noundef %33)
  %34 = load i32, ptr %12, align 4, !tbaa !8
  store i32 %34, ptr %6, align 4
  store i32 1, ptr %13, align 4
  br label %39

35:                                               ; preds = %22
  br label %37

36:                                               ; preds = %18
  store i32 -27648, ptr %12, align 4, !tbaa !8
  br label %37

37:                                               ; preds = %36, %35
  %38 = load i32, ptr %12, align 4, !tbaa !8
  store i32 %38, ptr %6, align 4
  store i32 1, ptr %13, align 4
  br label %39

39:                                               ; preds = %37, %31
  call void @llvm.lifetime.end.p0(i64 4, ptr %12) #10
  %40 = load i32, ptr %6, align 4
  ret i32 %40
}

; Function Attrs: alwaysinline nounwind uwtable
define internal void @mbedtls_put_unaligned_uint16(ptr noundef %0, i16 noundef zeroext %1) #5 {
  %3 = alloca ptr, align 8
  %4 = alloca i16, align 2
  store ptr %0, ptr %3, align 8, !tbaa !81
  store i16 %1, ptr %4, align 2, !tbaa !82
  %5 = load ptr, ptr %3, align 8, !tbaa !81
  call void @llvm.memcpy.p0.p0.i64(ptr align 1 %5, ptr align 2 %4, i64 2, i1 false)
  ret void
}

; Function Attrs: inlinehint nounwind uwtable
define internal i32 @mbedtls_ssl_chk_buf_ptr(ptr noundef %0, ptr noundef %1, i64 noundef %2) #3 {
  %4 = alloca ptr, align 8
  %5 = alloca ptr, align 8
  %6 = alloca i64, align 8
  store ptr %0, ptr %4, align 8, !tbaa !41
  store ptr %1, ptr %5, align 8, !tbaa !41
  store i64 %2, ptr %6, align 8, !tbaa !42
  %7 = load ptr, ptr %4, align 8, !tbaa !41
  %8 = load ptr, ptr %5, align 8, !tbaa !41
  %9 = icmp ugt ptr %7, %8
  br i1 %9, label %18, label %10

10:                                               ; preds = %3
  %11 = load i64, ptr %6, align 8, !tbaa !42
  %12 = load ptr, ptr %5, align 8, !tbaa !41
  %13 = load ptr, ptr %4, align 8, !tbaa !41
  %14 = ptrtoint ptr %12 to i64
  %15 = ptrtoint ptr %13 to i64
  %16 = sub i64 %14, %15
  %17 = icmp ugt i64 %11, %16
  br label %18

18:                                               ; preds = %10, %3
  %19 = phi i1 [ true, %3 ], [ %17, %10 ]
  %20 = zext i1 %19 to i32
  ret i32 %20
}

; Function Attrs: nounwind uwtable
define internal i32 @ssl_tls13_write_key_share_ext(ptr noundef %0, ptr noundef %1, ptr noundef %2, ptr noundef %3) #0 {
  %5 = alloca i32, align 4
  %6 = alloca ptr, align 8
  %7 = alloca ptr, align 8
  %8 = alloca ptr, align 8
  %9 = alloca ptr, align 8
  %10 = alloca i32, align 4
  %11 = alloca ptr, align 8
  %12 = alloca i16, align 2
  %13 = alloca ptr, align 8
  %14 = alloca i64, align 8
  %15 = alloca i32, align 4
  store ptr %0, ptr %6, align 8, !tbaa !3
  store ptr %1, ptr %7, align 8, !tbaa !41
  store ptr %2, ptr %8, align 8, !tbaa !41
  store ptr %3, ptr %9, align 8, !tbaa !120
  call void @llvm.lifetime.start.p0(i64 4, ptr %10) #10
  store i32 -110, ptr %10, align 4, !tbaa !8
  call void @llvm.lifetime.start.p0(i64 8, ptr %11) #10
  %16 = load ptr, ptr %7, align 8, !tbaa !41
  store ptr %16, ptr %11, align 8, !tbaa !41
  call void @llvm.lifetime.start.p0(i64 2, ptr %12) #10
  %17 = load ptr, ptr %6, align 8, !tbaa !3
  %18 = getelementptr inbounds nuw %struct.mbedtls_ssl_context, ptr %17, i32 0, i32 16
  %19 = load ptr, ptr %18, align 8, !tbaa !19
  %20 = getelementptr inbounds nuw %struct.mbedtls_ssl_handshake_params, ptr %19, i32 0, i32 59
  %21 = load i16, ptr %20, align 8, !tbaa !91
  store i16 %21, ptr %12, align 2, !tbaa !82
  call void @llvm.lifetime.start.p0(i64 8, ptr %13) #10
  %22 = load ptr, ptr %7, align 8, !tbaa !41
  %23 = getelementptr inbounds i8, ptr %22, i64 4
  store ptr %23, ptr %13, align 8, !tbaa !41
  call void @llvm.lifetime.start.p0(i64 8, ptr %14) #10
  %24 = load ptr, ptr %9, align 8, !tbaa !120
  store i64 0, ptr %24, align 8, !tbaa !42
  %25 = load ptr, ptr %6, align 8, !tbaa !3
  call void (ptr, i32, ptr, i32, ptr, ...) @mbedtls_debug_print_msg(ptr noundef %25, i32 noundef 3, ptr noundef @.str, i32 noundef 2144, ptr noundef @.str.100)
  %26 = load ptr, ptr %6, align 8, !tbaa !3
  %27 = load i16, ptr %12, align 2, !tbaa !82
  %28 = call ptr @mbedtls_ssl_named_group_to_str(i16 noundef zeroext %27)
  %29 = load i16, ptr %12, align 2, !tbaa !82
  %30 = zext i16 %29 to i32
  call void (ptr, i32, ptr, i32, ptr, ...) @mbedtls_debug_print_msg(ptr noundef %26, i32 noundef 2, ptr noundef @.str, i32 noundef 2148, ptr noundef @.str.101, ptr noundef %28, i32 noundef %30)
  br label %31

31:                                               ; preds = %4
  %32 = load ptr, ptr %11, align 8, !tbaa !41
  %33 = load ptr, ptr %8, align 8, !tbaa !41
  %34 = call i32 @mbedtls_ssl_chk_buf_ptr(ptr noundef %32, ptr noundef %33, i64 noundef 8)
  %35 = icmp ne i32 %34, 0
  br i1 %35, label %36, label %37

36:                                               ; preds = %31
  store i32 -27136, ptr %5, align 4
  store i32 1, ptr %15, align 4
  br label %84

37:                                               ; preds = %31
  br label %38

38:                                               ; preds = %37
  br label %39

39:                                               ; preds = %38
  %40 = load ptr, ptr %11, align 8, !tbaa !41
  %41 = getelementptr inbounds i8, ptr %40, i64 0
  call void @mbedtls_put_unaligned_uint16(ptr noundef %41, i16 noundef zeroext 13056)
  %42 = load ptr, ptr %13, align 8, !tbaa !41
  %43 = getelementptr inbounds i8, ptr %42, i64 0
  %44 = load i16, ptr %12, align 2, !tbaa !82
  %45 = call i16 @llvm.bswap.i16(i16 %44)
  call void @mbedtls_put_unaligned_uint16(ptr noundef %43, i16 noundef zeroext %45)
  %46 = load ptr, ptr %11, align 8, !tbaa !41
  %47 = getelementptr inbounds i8, ptr %46, i64 8
  store ptr %47, ptr %11, align 8, !tbaa !41
  %48 = load ptr, ptr %6, align 8, !tbaa !3
  %49 = load i16, ptr %12, align 2, !tbaa !82
  %50 = load ptr, ptr %13, align 8, !tbaa !41
  %51 = getelementptr inbounds i8, ptr %50, i64 4
  %52 = load ptr, ptr %8, align 8, !tbaa !41
  %53 = call i32 @ssl_tls13_generate_and_write_key_share(ptr noundef %48, i16 noundef zeroext %49, ptr noundef %51, ptr noundef %52, ptr noundef %14)
  store i32 %53, ptr %10, align 4, !tbaa !8
  %54 = load i32, ptr %10, align 4, !tbaa !8
  %55 = icmp ne i32 %54, 0
  br i1 %55, label %56, label %58

56:                                               ; preds = %39
  %57 = load i32, ptr %10, align 4, !tbaa !8
  store i32 %57, ptr %5, align 4
  store i32 1, ptr %15, align 4
  br label %84

58:                                               ; preds = %39
  %59 = load i64, ptr %14, align 8, !tbaa !42
  %60 = load ptr, ptr %11, align 8, !tbaa !41
  %61 = getelementptr inbounds nuw i8, ptr %60, i64 %59
  store ptr %61, ptr %11, align 8, !tbaa !41
  %62 = load ptr, ptr %13, align 8, !tbaa !41
  %63 = getelementptr inbounds i8, ptr %62, i64 2
  %64 = getelementptr inbounds i8, ptr %63, i64 0
  %65 = load i64, ptr %14, align 8, !tbaa !42
  %66 = trunc i64 %65 to i16
  %67 = call i16 @llvm.bswap.i16(i16 %66)
  call void @mbedtls_put_unaligned_uint16(ptr noundef %64, i16 noundef zeroext %67)
  %68 = load ptr, ptr %7, align 8, !tbaa !41
  %69 = getelementptr inbounds i8, ptr %68, i64 2
  %70 = load ptr, ptr %11, align 8, !tbaa !41
  %71 = load ptr, ptr %13, align 8, !tbaa !41
  %72 = ptrtoint ptr %70 to i64
  %73 = ptrtoint ptr %71 to i64
  %74 = sub i64 %72, %73
  %75 = trunc i64 %74 to i16
  %76 = call i16 @llvm.bswap.i16(i16 %75)
  call void @mbedtls_put_unaligned_uint16(ptr noundef %69, i16 noundef zeroext %76)
  %77 = load ptr, ptr %11, align 8, !tbaa !41
  %78 = load ptr, ptr %7, align 8, !tbaa !41
  %79 = ptrtoint ptr %77 to i64
  %80 = ptrtoint ptr %78 to i64
  %81 = sub i64 %79, %80
  %82 = load ptr, ptr %9, align 8, !tbaa !120
  store i64 %81, ptr %82, align 8, !tbaa !42
  %83 = load ptr, ptr %6, align 8, !tbaa !3
  call void @mbedtls_ssl_tls13_set_hs_sent_ext_mask(ptr noundef %83, i32 noundef 51)
  store i32 0, ptr %5, align 4
  store i32 1, ptr %15, align 4
  br label %84

84:                                               ; preds = %58, %56, %36
  call void @llvm.lifetime.end.p0(i64 8, ptr %14) #10
  call void @llvm.lifetime.end.p0(i64 8, ptr %13) #10
  call void @llvm.lifetime.end.p0(i64 2, ptr %12) #10
  call void @llvm.lifetime.end.p0(i64 8, ptr %11) #10
  call void @llvm.lifetime.end.p0(i64 4, ptr %10) #10
  %85 = load i32, ptr %5, align 4
  ret i32 %85
}