; Function Attrs: nounwind uwtable
define internal fastcc i32 @ssl_tls13_write_key_share_ext(ptr noundef %0, ptr noundef %1, ptr noundef %2, ptr noundef nonnull writeonly captures(none) initializes((0, 8)) %3) unnamed_addr #0 {
  %5 = alloca i64, align 8
  %6 = getelementptr inbounds nuw i8, ptr %0, i64 112
  %7 = load ptr, ptr %6, align 8, !tbaa !16
  %8 = getelementptr inbounds nuw i8, ptr %7, i64 2032
  %9 = load i16, ptr %8, align 8, !tbaa !117
  %10 = getelementptr inbounds nuw i8, ptr %1, i64 4
  call void @llvm.lifetime.start.p0(i64 8, ptr nonnull %5) #9
  store i64 0, ptr %3, align 8, !tbaa !39
  tail call void (ptr, i32, ptr, i32, ptr, ...) @mbedtls_debug_print_msg(ptr noundef %0, i32 noundef 3, ptr noundef nonnull @.str, i32 noundef 2144, ptr noundef nonnull @.str.100) #9
  %11 = tail call ptr @mbedtls_ssl_named_group_to_str(i16 noundef zeroext %9) #9
  %12 = zext i16 %9 to i32
  tail call void (ptr, i32, ptr, i32, ptr, ...) @mbedtls_debug_print_msg(ptr noundef %0, i32 noundef 2, ptr noundef nonnull @.str, i32 noundef 2148, ptr noundef nonnull @.str.101, ptr noundef %11, i32 noundef %12) #9
  %13 = icmp ule ptr %1, %2
  %14 = ptrtoint ptr %2 to i64
  %15 = ptrtoint ptr %1 to i64
  %16 = sub i64 %14, %15
  %17 = icmp ugt i64 %16, 7
  %narrow.i.not = and i1 %13, %17
  br i1 %narrow.i.not, label %18, label %ssl_tls13_generate_and_write_key_share.exit.thread

18:                                               ; preds = %4
  store i16 13056, ptr %1, align 1
  %19 = tail call i16 @llvm.bswap.i16(i16 %9)
  store i16 %19, ptr %10, align 1
  %20 = getelementptr inbounds nuw i8, ptr %1, i64 8
  store i64 0, ptr %5, align 8, !tbaa !39
  switch i16 %9, label %21 [
    i16 29, label %mbedtls_ssl_tls13_named_group_is_ecdhe.exit.thread.i
    i16 25, label %mbedtls_ssl_tls13_named_group_is_ecdhe.exit.thread.i
    i16 24, label %mbedtls_ssl_tls13_named_group_is_ecdhe.exit.thread.i
    i16 23, label %mbedtls_ssl_tls13_named_group_is_ecdhe.exit.thread.i
    i16 30, label %mbedtls_ssl_tls13_named_group_is_ecdhe.exit.thread.i
  ]

21:                                               ; preds = %18
  %22 = add i16 %9, -261
  %23 = icmp ult i16 %22, -5
  br i1 %23, label %ssl_tls13_generate_and_write_key_share.exit.thread, label %mbedtls_ssl_tls13_named_group_is_ecdhe.exit.thread.i

mbedtls_ssl_tls13_named_group_is_ecdhe.exit.thread.i: ; preds = %21, %18, %18, %18, %18, %18
  %24 = call i32 @mbedtls_ssl_tls13_generate_and_write_xxdh_key_exchange(ptr noundef nonnull %0, i16 noundef zeroext %9, ptr noundef nonnull %20, ptr noundef %2, ptr noundef nonnull %5) #9
  %.not16.i = icmp eq i32 %24, 0
  br i1 %.not16.i, label %ssl_tls13_generate_and_write_key_share.exit, label %25

25:                                               ; preds = %mbedtls_ssl_tls13_named_group_is_ecdhe.exit.thread.i
  call void @mbedtls_debug_print_ret(ptr noundef nonnull %0, i32 noundef 1, ptr noundef nonnull @.str, i32 noundef 2100, ptr noundef nonnull @.str.102, i32 noundef %24) #9
  br label %ssl_tls13_generate_and_write_key_share.exit.thread

ssl_tls13_generate_and_write_key_share.exit:      ; preds = %mbedtls_ssl_tls13_named_group_is_ecdhe.exit.thread.i
  %26 = load i64, ptr %5, align 8, !tbaa !39
  %27 = getelementptr inbounds nuw i8, ptr %20, i64 %26
  %28 = getelementptr inbounds nuw i8, ptr %1, i64 6
  %29 = trunc i64 %26 to i16
  %30 = call i16 @llvm.bswap.i16(i16 %29)
  store i16 %30, ptr %28, align 1
  %31 = getelementptr inbounds nuw i8, ptr %1, i64 2
  %32 = ptrtoint ptr %27 to i64
  %33 = ptrtoint ptr %10 to i64
  %34 = sub i64 %32, %33
  %35 = trunc i64 %34 to i16
  %36 = call i16 @llvm.bswap.i16(i16 %35)
  store i16 %36, ptr %31, align 1
  %37 = sub i64 %32, %15
  store i64 %37, ptr %3, align 8, !tbaa !39
  %38 = call i32 @mbedtls_ssl_get_extension_mask(i32 noundef 51) #9
  %39 = load ptr, ptr %6, align 8, !tbaa !16
  %40 = getelementptr inbounds nuw i8, ptr %39, i64 3272
  %41 = load i32, ptr %40, align 8, !tbaa !77
  %42 = or i32 %41, %38
  store i32 %42, ptr %40, align 8, !tbaa !77
  br label %ssl_tls13_generate_and_write_key_share.exit.thread

ssl_tls13_generate_and_write_key_share.exit.thread: ; preds = %21, %25, %4, %ssl_tls13_generate_and_write_key_share.exit
  %.0 = phi i32 [ 0, %ssl_tls13_generate_and_write_key_share.exit ], [ -27136, %4 ], [ -27648, %21 ], [ %24, %25 ]
  call void @llvm.lifetime.end.p0(i64 8, ptr nonnull %5) #9
  ret i32 %.0
}